; Function Attrs: mustprogress nofree norecurse nosync nounwind willreturn memory(argmem: read) uwtable
define hidden noundef double @_ZN8AngleSet7overlapEdd(ptr noundef nonnull readonly align 8 captures(none) dereferenceable(8656) %0, double noundef %1, double noundef %2) local_unnamed_addr #11 align 2 {
  %4 = fcmp ogt double %2, %1
  %5 = getelementptr inbounds nuw i8, ptr %0, i64 8640
  %.03336.i = load i32, ptr %5, align 8, !tbaa !15
  %6 = icmp sgt i32 %.03336.i, -1
  br i1 %4, label %7, label %32

7:                                                ; preds = %3
  br i1 %6, label %.lr.ph.i, label %_ZN8AngleSet8_overlapEdd.exit

.lr.ph.i:                                         ; preds = %7, %.outer.i
  %.03338.i = phi i32 [ %.033.i, %.outer.i ], [ %.03336.i, %7 ]
  %.023.ph37.i = phi double [ %.1.i, %.outer.i ], [ 0.000000e+00, %7 ]
  br label %8

8:                                                ; preds = %14, %.lr.ph.i
  %.034.i = phi i32 [ %.03338.i, %.lr.ph.i ], [ %.0.i, %14 ]
  %9 = zext nneg i32 %.034.i to i64
  %10 = getelementptr inbounds nuw [360 x %struct.AngleSetArc], ptr %0, i64 0, i64 %9
  %11 = getelementptr inbounds nuw i8, ptr %10, i64 8
  %12 = load double, ptr %11, align 8, !tbaa !25
  %13 = fcmp ogt double %1, %12
  br i1 %13, label %14, label %17

14:                                               ; preds = %8
  %15 = getelementptr inbounds nuw i8, ptr %10, i64 16
  %.0.i = load i32, ptr %15, align 8, !tbaa !15
  %16 = icmp sgt i32 %.0.i, -1
  br i1 %16, label %8, label %_ZN8AngleSet8_overlapEdd.exit, !llvm.loop !36

17:                                               ; preds = %8
  %18 = load double, ptr %10, align 8, !tbaa !23
  %19 = fcmp olt double %2, %18
  br i1 %19, label %_ZN8AngleSet8_overlapEdd.exit, label %20

20:                                               ; preds = %17
  %21 = fcmp olt double %1, %18
  %22 = fcmp ogt double %2, %12
  %or.cond.i = and i1 %22, %21
  br i1 %or.cond.i, label %23, label %25

23:                                               ; preds = %20
  %24 = fsub double %12, %18
  br label %.outer.i

25:                                               ; preds = %20
  br i1 %21, label %26, label %28

26:                                               ; preds = %25
  %27 = fsub double %2, %18
  br label %.outer.i

28:                                               ; preds = %25
  %29 = fsub double %12, %1
  br label %.outer.i

.outer.i:                                         ; preds = %28, %26, %23
  %.pn.i = phi double [ %24, %23 ], [ %27, %26 ], [ %29, %28 ]
  %.1.i = fadd double %.023.ph37.i, %.pn.i
  %30 = getelementptr inbounds nuw i8, ptr %10, i64 16
  %.033.i = load i32, ptr %30, align 8, !tbaa !15
  %31 = icmp sgt i32 %.033.i, -1
  br i1 %31, label %.lr.ph.i, label %_ZN8AngleSet8_overlapEdd.exit, !llvm.loop !36

32:                                               ; preds = %3
  br i1 %6, label %.lr.ph.i16, label %_ZN8AngleSet8_overlapEdd.exit39

.lr.ph.i16:                                       ; preds = %32, %.outer.i21
  %.03338.i17 = phi i32 [ %.033.i24, %.outer.i21 ], [ %.03336.i, %32 ]
  %.023.ph37.i18 = phi double [ %.1.i23, %.outer.i21 ], [ 0.000000e+00, %32 ]
  br label %33

33:                                               ; preds = %39, %.lr.ph.i16
  %.034.i19 = phi i32 [ %.03338.i17, %.lr.ph.i16 ], [ %.0.i25, %39 ]
  %34 = zext nneg i32 %.034.i19 to i64
  %35 = getelementptr inbounds nuw [360 x %struct.AngleSetArc], ptr %0, i64 0, i64 %34
  %36 = getelementptr inbounds nuw i8, ptr %35, i64 8
  %37 = load double, ptr %36, align 8, !tbaa !25
  %38 = fcmp ogt double %1, %37
  br i1 %38, label %39, label %42

39:                                               ; preds = %33
  %40 = getelementptr inbounds nuw i8, ptr %35, i64 16
  %.0.i25 = load i32, ptr %40, align 8, !tbaa !15
  %41 = icmp sgt i32 %.0.i25, -1
  br i1 %41, label %33, label %_ZN8AngleSet8_overlapEdd.exit26, !llvm.loop !36

42:                                               ; preds = %33
  %43 = load double, ptr %35, align 8, !tbaa !23
  %44 = fcmp ogt double %43, 0x401921FB54442D18
  br i1 %44, label %_ZN8AngleSet8_overlapEdd.exit26, label %45

45:                                               ; preds = %42
  %46 = fcmp olt double %1, %43
  %47 = fcmp olt double %37, 0x401921FB54442D18
  %or.cond.i20 = and i1 %47, %46
  br i1 %or.cond.i20, label %48, label %50

48:                                               ; preds = %45
  %49 = fsub double %37, %43
  br label %.outer.i21

50:                                               ; preds = %45
  br i1 %46, label %51, label %53

51:                                               ; preds = %50
  %52 = fsub double 0x401921FB54442D18, %43
  br label %.outer.i21

53:                                               ; preds = %50
  %54 = fsub double %37, %1
  br label %.outer.i21

.outer.i21:                                       ; preds = %53, %51, %48
  %.pn.i22 = phi double [ %49, %48 ], [ %52, %51 ], [ %54, %53 ]
  %.1.i23 = fadd double %.023.ph37.i18, %.pn.i22
  %55 = getelementptr inbounds nuw i8, ptr %35, i64 16
  %.033.i24 = load i32, ptr %55, align 8, !tbaa !15
  %56 = icmp sgt i32 %.033.i24, -1
  br i1 %56, label %.lr.ph.i16, label %_ZN8AngleSet8_overlapEdd.exit26, !llvm.loop !36

_ZN8AngleSet8_overlapEdd.exit26:                  ; preds = %42, %.outer.i21, %39
  %.023.ph32.i15 = phi double [ %.023.ph37.i18, %39 ], [ %.023.ph37.i18, %42 ], [ %.1.i23, %.outer.i21 ]
  br label %.lr.ph.i29

.lr.ph.i29:                                       ; preds = %_ZN8AngleSet8_overlapEdd.exit26, %.outer.i34
  %.03338.i30 = phi i32 [ %.033.i37, %.outer.i34 ], [ %.03336.i, %_ZN8AngleSet8_overlapEdd.exit26 ]
  %.023.ph37.i31 = phi double [ %.1.i36, %.outer.i34 ], [ 0.000000e+00, %_ZN8AngleSet8_overlapEdd.exit26 ]
  br label %57

57:                                               ; preds = %63, %.lr.ph.i29
  %.034.i32 = phi i32 [ %.03338.i30, %.lr.ph.i29 ], [ %.0.i38, %63 ]
  %58 = zext nneg i32 %.034.i32 to i64
  %59 = getelementptr inbounds nuw [360 x %struct.AngleSetArc], ptr %0, i64 0, i64 %58
  %60 = getelementptr inbounds nuw i8, ptr %59, i64 8
  %61 = load double, ptr %60, align 8, !tbaa !25
  %62 = fcmp olt double %61, 0.000000e+00
  br i1 %62, label %63, label %66

63:                                               ; preds = %57
  %64 = getelementptr inbounds nuw i8, ptr %59, i64 16
  %.0.i38 = load i32, ptr %64, align 8, !tbaa !15
  %65 = icmp sgt i32 %.0.i38, -1
  br i1 %65, label %57, label %_ZN8AngleSet8_overlapEdd.exit39, !llvm.loop !36

66:                                               ; preds = %57
  %67 = load double, ptr %59, align 8, !tbaa !23
  %68 = fcmp olt double %2, %67
  br i1 %68, label %_ZN8AngleSet8_overlapEdd.exit39, label %69

69:                                               ; preds = %66
  %70 = fcmp ogt double %67, 0.000000e+00
  %71 = fcmp ogt double %2, %61
  %or.cond.i33 = and i1 %71, %70
  br i1 %or.cond.i33, label %72, label %74

72:                                               ; preds = %69
  %73 = fsub double %61, %67
  br label %.outer.i34

74:                                               ; preds = %69
  br i1 %70, label %75, label %.outer.i34

75:                                               ; preds = %74
  %76 = fsub double %2, %67
  br label %.outer.i34

.outer.i34:                                       ; preds = %74, %75, %72
  %.pn.i35 = phi double [ %73, %72 ], [ %76, %75 ], [ %61, %74 ]
  %.1.i36 = fadd double %.023.ph37.i31, %.pn.i35
  %77 = getelementptr inbounds nuw i8, ptr %59, i64 16
  %.033.i37 = load i32, ptr %77, align 8, !tbaa !15
  %78 = icmp sgt i32 %.033.i37, -1
  br i1 %78, label %.lr.ph.i29, label %_ZN8AngleSet8_overlapEdd.exit39, !llvm.loop !36

_ZN8AngleSet8_overlapEdd.exit39:                  ; preds = %66, %.outer.i34, %63, %32
  %.023.ph32.i1542 = phi double [ 0.000000e+00, %32 ], [ %.023.ph32.i15, %63 ], [ %.023.ph32.i15, %.outer.i34 ], [ %.023.ph32.i15, %66 ]
  %.023.ph32.i28 = phi double [ 0.000000e+00, %32 ], [ %.023.ph37.i31, %63 ], [ %.023.ph37.i31, %66 ], [ %.1.i36, %.outer.i34 ]
  %79 = fadd double %.023.ph32.i1542, %.023.ph32.i28
  br label %_ZN8AngleSet8_overlapEdd.exit

_ZN8AngleSet8_overlapEdd.exit:                    ; preds = %.outer.i, %17, %14, %7, %_ZN8AngleSet8_overlapEdd.exit39
  %.0 = phi double [ %79, %_ZN8AngleSet8_overlapEdd.exit39 ], [ 0.000000e+00, %7 ], [ %.023.ph37.i, %14 ], [ %.023.ph37.i, %17 ], [ %.1.i, %.outer.i ]
  %80 = fsub double 0x401921FB54442D18, %1
  %81 = fneg double %1
  %.0.p.i = select i1 %4, double %81, double %80
  %.0.i40 = fadd double %2, %.0.p.i
  %82 = fdiv double %.0, %.0.i40
  ret double %82
}